target datalayout = "e-m:e-p270:32:32-p271:32:32-p272:64:64-i64:64-i128:128-f80:128-n8:16:32:64-S128"
target triple = "x86_64-pc-linux-gnu"

%struct.ipc_client_connection = type { i32 }

; Function Attrs: nounwind uwtable
define dso_local void @ipc_client_close_connection(ptr noundef %0) #0 {
  %2 = alloca ptr, align 8
  store ptr %0, ptr %2, align 8, !tbaa !11
  %3 = load ptr, ptr %2, align 8, !tbaa !11
  %4 = icmp ne ptr %3, null
  br i1 %4, label %6, label %5

5:                                                ; preds = %1
  br label %18

6:                                                ; preds = %1
  %7 = load ptr, ptr %2, align 8, !tbaa !11
  %8 = getelementptr inbounds nuw %struct.ipc_client_connection, ptr %7, i32 0, i32 0
  %9 = load i32, ptr %8, align 4, !tbaa !21
  %10 = icmp ne i32 %9, -1
  br i1 %10, label %11, label %16

11:                                               ; preds = %6
  %12 = load ptr, ptr %2, align 8, !tbaa !11
  %13 = getelementptr inbounds nuw %struct.ipc_client_connection, ptr %12, i32 0, i32 0
  %14 = load i32, ptr %13, align 4, !tbaa !21
  %15 = call i32 @close(i32 noundef %14)
  br label %16

16:                                               ; preds = %11, %6
  %17 = load ptr, ptr %2, align 8, !tbaa !11
  call void @free(ptr noundef %17) #10
  br label %18

18:                                               ; preds = %16, %5
  ret void
}

; Function Attrs: nounwind uwtable
define dso_local i32 @ipc_client_send_command(ptr noundef %0, ptr noundef %1, ptr noundef %2, i64 noundef %3, ptr noundef %4) #0 {
  %6 = alloca i32, align 4
  %7 = alloca ptr, align 8
  %8 = alloca ptr, align 8
  %9 = alloca ptr, align 8
  %10 = alloca i64, align 8
  %11 = alloca ptr, align 8
  %12 = alloca i32, align 4
  %13 = alloca i32, align 4
  %14 = alloca ptr, align 8
  %15 = alloca i32, align 4
  store ptr %0, ptr %7, align 8, !tbaa !4
  store ptr %1, ptr %8, align 8, !tbaa !17
  store ptr %2, ptr %9, align 8, !tbaa !4
  store i64 %3, ptr %10, align 8, !tbaa !27
  store ptr %4, ptr %11, align 8, !tbaa !28
  call void @llvm.lifetime.start.p0(i64 4, ptr %12) #10
  store i32 -1, ptr %12, align 4, !tbaa !9
  call void @llvm.lifetime.start.p0(i64 4, ptr %13) #10
  call void @llvm.lifetime.start.p0(i64 8, ptr %14) #10
  store ptr null, ptr %14, align 8, !tbaa !11
  %16 = load ptr, ptr %7, align 8, !tbaa !4
  %17 = load ptr, ptr %8, align 8, !tbaa !17
  %18 = call i32 @ipc_client_try_connect(ptr noundef %16, ptr noundef %17, ptr noundef %14)
  store i32 %18, ptr %13, align 4, !tbaa !9
  %19 = load i32, ptr %13, align 4, !tbaa !9
  %20 = icmp ne i32 %19, 0
  br i1 %20, label %21, label %23

21:                                               ; preds = %5
  %22 = load i32, ptr %12, align 4, !tbaa !9
  store i32 %22, ptr %6, align 4
  store i32 1, ptr %15, align 4
  br label %31

23:                                               ; preds = %5
  %24 = load ptr, ptr %14, align 8, !tbaa !11
  %25 = load ptr, ptr %9, align 8, !tbaa !4
  %26 = load i64, ptr %10, align 8, !tbaa !27
  %27 = load ptr, ptr %11, align 8, !tbaa !28
  %28 = call i32 @ipc_client_send_command_to_connection(ptr noundef %24, ptr noundef %25, i64 noundef %26, ptr noundef %27)
  store i32 %28, ptr %12, align 4, !tbaa !9
  %29 = load ptr, ptr %14, align 8, !tbaa !11
  call void @ipc_client_close_connection(ptr noundef %29)
  %30 = load i32, ptr %12, align 4, !tbaa !9
  store i32 %30, ptr %6, align 4
  store i32 1, ptr %15, align 4
  br label %31

31:                                               ; preds = %23, %21
  call void @llvm.lifetime.end.p0(i64 8, ptr %14) #10
  call void @llvm.lifetime.end.p0(i64 4, ptr %13) #10
  call void @llvm.lifetime.end.p0(i64 4, ptr %12) #10
  %32 = load i32, ptr %6, align 4
  ret i32 %32
}