; Function Attrs: nounwind uwtable
define dso_local range(i32 -1, 1) i32 @ipc_client_send_command(ptr noundef %0, ptr noundef readonly captures(none) %1, ptr noundef %2, i64 noundef %3, ptr noundef %4) local_unnamed_addr #0 {
  %6 = alloca ptr, align 8
  call void @llvm.lifetime.start.p0(i64 8, ptr nonnull %6) #13
  %7 = call i32 @ipc_client_try_connect(ptr noundef %0, ptr noundef %1, ptr noundef nonnull %6)
  %.not = icmp eq i32 %7, 0
  br i1 %.not, label %8, label %ipc_client_close_connection.exit

8:                                                ; preds = %5
  %9 = load ptr, ptr %6, align 8, !tbaa !12
  %10 = tail call i32 @ipc_client_send_command_to_connection(ptr noundef %9, ptr noundef %2, i64 noundef %3, ptr noundef %4)
  %.not.i = icmp eq ptr %9, null
  br i1 %.not.i, label %ipc_client_close_connection.exit, label %11

11:                                               ; preds = %8
  %12 = load i32, ptr %9, align 4, !tbaa !15
  %.not5.i = icmp eq i32 %12, -1
  br i1 %.not5.i, label %15, label %13

13:                                               ; preds = %11
  %14 = tail call i32 @close(i32 noundef %12) #13
  br label %15

15:                                               ; preds = %13, %11
  tail call void @free(ptr noundef nonnull %9) #13
  br label %ipc_client_close_connection.exit

ipc_client_close_connection.exit:                 ; preds = %15, %8, %5
  %.0 = phi i32 [ -1, %5 ], [ %10, %8 ], [ %10, %15 ]
  call void @llvm.lifetime.end.p0(i64 8, ptr nonnull %6) #13
  ret i32 %.0
}